; Function Attrs: mustprogress nofree norecurse nosync nounwind willreturn memory(readwrite, inaccessiblemem: none) uwtable
define hidden void @_ZN9Assembler7vshufpsE11XMMRegisterS0_S0_ii(ptr noundef nonnull align 8 dereferenceable(40) %0, i32 %1, i32 %2, i32 %3, i32 noundef %4, i32 noundef %5) local_unnamed_addr #8 align 2 {
  %7 = alloca %class.InstructionAttr, align 8
  store i8 0, ptr %7, align 8
  %8 = getelementptr inbounds i8, ptr %7, i64 1
  %9 = load i32, ptr @UseAVX, align 4
  %10 = icmp slt i32 %9, 3
  %11 = zext i1 %10 to i8
  store i8 %11, ptr %8, align 1
  %12 = getelementptr inbounds i8, ptr %7, i64 2
  store <4 x i8> <i8 1, i8 1, i8 0, i8 0>, ptr %12, align 2
  %13 = getelementptr inbounds i8, ptr %7, i64 6
  store i8 1, ptr %13, align 2
  %14 = getelementptr inbounds i8, ptr %7, i64 7
  store i8 0, ptr %14, align 1
  %15 = getelementptr inbounds i8, ptr %7, i64 8
  store i32 %5, ptr %15, align 8
  %16 = getelementptr inbounds i8, ptr %7, i64 12
  store <4 x i32> <i32 24, i32 4, i32 0, i32 0>, ptr %16, align 4
  %17 = getelementptr inbounds i8, ptr %7, i64 32
  store ptr null, ptr %17, align 8
  %18 = sext i32 %1 to i64
  %19 = getelementptr inbounds %"class.XMMRegister::XMMRegisterImpl", ptr getelementptr inbounds (i8, ptr @all_XMMRegisterImpls, i64 1), i64 %18
  %20 = ptrtoint ptr %19 to i64
  %21 = trunc i64 %20 to i32
  %22 = sub i32 %21, ptrtoint (ptr getelementptr inbounds (i8, ptr @all_XMMRegisterImpls, i64 1) to i32)
  %23 = sext i32 %2 to i64
  %24 = getelementptr inbounds %"class.XMMRegister::XMMRegisterImpl", ptr getelementptr inbounds (i8, ptr @all_XMMRegisterImpls, i64 1), i64 %23
  %25 = ptrtoint ptr %24 to i64
  %26 = trunc i64 %25 to i32
  %27 = sub i32 %26, ptrtoint (ptr getelementptr inbounds (i8, ptr @all_XMMRegisterImpls, i64 1) to i32)
  %28 = sext i32 %3 to i64
  %29 = getelementptr inbounds %"class.XMMRegister::XMMRegisterImpl", ptr getelementptr inbounds (i8, ptr @all_XMMRegisterImpls, i64 1), i64 %28
  %30 = ptrtoint ptr %29 to i64
  %31 = trunc i64 %30 to i32
  %32 = sub i32 %31, ptrtoint (ptr getelementptr inbounds (i8, ptr @all_XMMRegisterImpls, i64 1) to i32)
  %33 = call noundef i32 @_ZN9Assembler21vex_prefix_and_encodeEiiiNS_13VexSimdPrefixENS_9VexOpcodeEP15InstructionAttrb(ptr noundef nonnull align 8 dereferenceable(40) %0, i32 noundef %22, i32 noundef %27, i32 noundef %32, i32 noundef 0, i32 noundef 1, ptr noundef nonnull %7, i1 noundef zeroext false)
  %34 = getelementptr inbounds i8, ptr %0, i64 8
  %35 = load ptr, ptr %34, align 8
  %36 = trunc nuw nsw i32 %33 to i8
  %.0.i3.i = or disjoint i8 %36, -64
  %.0.i4.i = trunc i32 %4 to i8
  %37 = getelementptr inbounds i8, ptr %35, i64 16
  %38 = load ptr, ptr %37, align 8
  %39 = getelementptr inbounds i8, ptr %38, i64 1
  store i8 -58, ptr %38, align 1
  %40 = getelementptr inbounds i8, ptr %38, i64 2
  store i8 %.0.i3.i, ptr %39, align 1
  %41 = getelementptr inbounds i8, ptr %38, i64 3
  store i8 %.0.i4.i, ptr %40, align 1
  store ptr %41, ptr %37, align 8
  %42 = load ptr, ptr %17, align 8
  %.not.i = icmp eq ptr %42, null
  br i1 %.not.i, label %_ZN15InstructionAttrD2Ev.exit, label %43

43:                                               ; preds = %6
  %44 = getelementptr inbounds i8, ptr %42, i64 32
  store ptr null, ptr %44, align 8
  br label %_ZN15InstructionAttrD2Ev.exit

_ZN15InstructionAttrD2Ev.exit:                    ; preds = %6, %43
  ret void
}